MPASM 5.77                         TRAB3.ASM   11-17-2021  11:41:33         PAGE  1


LOC  OBJECT CODE     LINE SOURCE TEXT
  VALUE

                      00001 ;* * * * * * * * * * * * * * * * * * * * * * * * * * * * * * * * * *
                      00002 ;*              MODIFICAÇÕES PARA USO COM 12F675                   *
                      00003 ;*                FEITAS PELO PROF. MARDSON                        *
                      00004 ;*                      MARÇO DE 2021                              *
                      00005 ;*                 BASEADO NO EXEMPLO DO LIVRO                     *
                      00006 ;*           Desbravando o PIC. David José de Souza                *
                      00007 ;*-----------------------------------------------------------------*
                      00008 ;*   MODELO PARA O PIC 12F675                                      *
                      00009 ;* * * * * * * * * * * * * * * * * * * * * * * * * * * * * * * * * *
                      00010 
                      00011 ;* * * * * * * * * * * * * * * * * * * * * * * * * * * * * * * * * *
                      00012 ;*                     ARQUIVOS DE DEFINIÇÕES                      *
                      00013 ;* * * * * * * * * * * * * * * * * * * * * * * * * * * * * * * * * *
                      00014 #INCLUDE <p12f675.inc>  ;ARQUIVO PADRÃO MICROCHIP PARA 12F675
                      00001         LIST
                      00002 
                      00003 ;==========================================================================
                      00004 ; Build date : Nov 22 2017
                      00005 ;  MPASM PIC12F675 processor include
                      00006 ; 
                      00007 ;  (c) Copyright 1999-2017 Microchip Technology, All rights reserved
                      00008 ;==========================================================================
                      00009 
                      00367         LIST
                      00015 
2007   3FA4           00016         __CONFIG _BODEN_OFF & _CP_OFF & _PWRTE_ON & _WDT_OFF & _MCLRE_ON & _INTRC_OSC_NOCLKOUT
                      00017 
                      00018 ;* * * * * * * * * * * * * * * * * * * * * * * * * * * * * * * * * *
                      00019 ;*                    PAGINAÇÃO DE MEMÓRIA                         *
                      00020 ;* * * * * * * * * * * * * * * * * * * * * * * * * * * * * * * * * *
                      00021 ;DEFINIÇÃO DE COMANDOS DE USUÁRIO PARA ALTERAÇÃO DA PÁGINA DE MEMÓRIA
                      00022 #DEFINE BANK0   BCF STATUS,RP0  ;SETA BANK 0 DE MEMÓRIA
                      00023 #DEFINE BANK1   BSF STATUS,RP0  ;SETA BANK 1 DE MAMÓRIA
                      00024 
                      00025 ;* * * * * * * * * * * * * * * * * * * * * * * * * * * * * * * * * *
                      00026 ;*                         VARIÁVEIS                               *
                      00027 ;* * * * * * * * * * * * * * * * * * * * * * * * * * * * * * * * * *
                      00028 ; DEFINIÇÃO DOS NOMES E ENDEREÇOS DE TODAS AS VARIÁVEIS UTILIZADAS 
                      00029 ; PELO SISTEMA
                      00030 
                      00031         CBLOCK  0x20    ;ENDEREÇO INICIAL DA MEMÓRIA DE
                      00032                                         ;USUÁRIO
  00000020            00033                 W_TEMP            ;REGISTRADORES TEMPORÁRIOS PARA USO
  00000021            00034                 STATUS_TEMP       ;JUNTO ÀS INTERRUPÇÕE
  00000022            00035                 PERIODO
  00000023            00036                 ONDA
  00000024            00037                 int5kInicial
  00000025            00038                 int5kFinal
  00000026            00039                 int10kInicial
  00000027            00040                 int10kFinal
  00000028            00041                 int20kInicial
  00000029            00042                 int20kFinal
  0000002A            00043                 int30kInicial
MPASM 5.77                         TRAB3.ASM   11-17-2021  11:41:33         PAGE  2


LOC  OBJECT CODE     LINE SOURCE TEXT
  VALUE

  0000002B            00044                 int30kFinal
                      00045                 
                      00046                 ;COLOQUE AQUI SUAS NOVAS VARIÁVEIS
                      00047                 ;NÃO ESQUEÇA COMENTÁRIOS ESCLARECEDORES
                      00048 
                      00049         ENDC                    ;FIM DO BLOCO DE DEFINIÇÃO DE VARIÁVEIS
                      00050 
                      00051 ;* * * * * * * * * * * * * * * * * * * * * * * * * * * * * * * * * *
                      00052 ;*                        FLAGS INTERNOS                           *
                      00053 ;* * * * * * * * * * * * * * * * * * * * * * * * * * * * * * * * * *
                      00054 ; DEFINIÇÃO DE TODOS OS FLAGS UTILIZADOS PELO SISTEMA
                      00055 
                      00056 ;* * * * * * * * * * * * * * * * * * * * * * * * * * * * * * * * * *
                      00057 ;*                         CONSTANTES                              *
                      00058 ;* * * * * * * * * * * * * * * * * * * * * * * * * * * * * * * * * *
                      00059 ; DEFINIÇÃO DE TODAS AS CONSTANTES UTILIZADAS PELO SISTEMA
                      00060 
                      00061 ;* * * * * * * * * * * * * * * * * * * * * * * * * * * * * * * * * *
                      00062 ;*                           ENTRADAS                              *
                      00063 ;* * * * * * * * * * * * * * * * * * * * * * * * * * * * * * * * * *
                      00064 ; DEFINIÇÃO DE TODOS OS PINOS QUE SERÃO UTILIZADOS COMO ENTRADA
                      00065 ; RECOMENDAMOS TAMBÉM COMENTAR O SIGNIFICADO DE SEUS ESTADOS (0 E 1)
                      00066 
                      00067 ;* * * * * * * * * * * * * * * * * * * * * * * * * * * * * * * * * *
                      00068 ;*                           SAÍDAS                                *
                      00069 ;* * * * * * * * * * * * * * * * * * * * * * * * * * * * * * * * * *
                      00070 ; DEFINIÇÃO DE TODOS OS PINOS QUE SERÃO UTILIZADOS COMO SAÍDA
                      00071 ; RECOMENDAMOS TAMBÉM COMENTAR O SIGNIFICADO DE SEUS ESTADOS (0 E 1)
                      00072 
                      00073 ;* * * * * * * * * * * * * * * * * * * * * * * * * * * * * * * * * *
                      00074 ;*                       VETOR DE RESET                            *
                      00075 ;* * * * * * * * * * * * * * * * * * * * * * * * * * * * * * * * * *
                      00076 
                      00077         ORG     0x00                    ;ENDEREÇO INICIAL DE PROCESSAMENTO
0000   2???           00078         GOTO    INICIO
                      00079         
                      00080         
                      00081 ;* * * * * * * * * * * * * * * * * * * * * * * * * * * * * * * * * *
                      00082 ;*                    INÍCIO DA INTERRUPÇÃO                        *
                      00083 ;* * * * * * * * * * * * * * * * * * * * * * * * * * * * * * * * * *
                      00084 ; ENDEREÇO DE DESVIO DAS INTERRUPÇÕES. A PRIMEIRA TAREFA É SALVAR OS
                      00085 ; VALORES DE "W" E "STATUS" PARA RECUPERAÇÃO FUTURA
                      00086 
                      00087         ORG     0x04                    ;ENDEREÇO INICIAL DA INTERRUPÇÃO
0004   00A0           00088         MOVWF   W_TEMP          ;COPIA W PARA W_TEMP
0005   0E03           00089         SWAPF   STATUS,W
0006   00A1           00090         MOVWF   STATUS_TEMP     ;COPIA STATUS PARA STATUS_TEMP
                      00091 
                      00092 ;* * * * * * * * * * * * * * * * * * * * * * * * * * * * * * * * * *
                      00093 ;*                    ROTINA DE INTERRUPÇÃO                        *
                      00094 ;* * * * * * * * * * * * * * * * * * * * * * * * * * * * * * * * * *
                      00095 ; AQUI SERÃO ESCRITAS AS ROTINAS DE RECONHECIMENTO E TRATAMENTO DAS
                      00096 ; INTERRUPÇÕES
MPASM 5.77                         TRAB3.ASM   11-17-2021  11:41:33         PAGE  3


LOC  OBJECT CODE     LINE SOURCE TEXT
  VALUE

                      00097 
                      00098 ;* * * * * * * * * * * * * * * * * * * * * * * * * * * * * * * * * *
                      00099 ;*                 ROTINA DE SAÍDA DA INTERRUPÇÃO                  *
                      00100 ;* * * * * * * * * * * * * * * * * * * * * * * * * * * * * * * * * *
                      00101 ; OS VALORES DE "W" E "STATUS" DEVEM SER RECUPERADOS ANTES DE 
                      00102 ; RETORNAR DA INTERRUPÇÃO
                      00103 
0007                  00104 SAI_INT
0007   0E21           00105         SWAPF   STATUS_TEMP,W
0008   0083           00106         MOVWF   STATUS          ;MOVE STATUS_TEMP PARA STATUS
0009   0EA0           00107         SWAPF   W_TEMP,F
000A   0E20           00108         SWAPF   W_TEMP,W        ;MOVE W_TEMP PARA W
000B   0009           00109         RETFIE
                      00110 
                      00111 ;* * * * * * * * * * * * * * * * * * * * * * * * * * * * * * * * * *
                      00112 ;*                       ROTINAS E SUBROTINAS                      *
                      00113 ;* * * * * * * * * * * * * * * * * * * * * * * * * * * * * * * * * *
                      00114 ; CADA ROTINA OU SUBROTINA DEVE POSSUIR A DESCRIÇÃO DE FUNCIONAMENTO
                      00115 ; E UM NOME COERENTE ÀS SUAS FUNÇÕES.
                      00116 
000C                  00117 ALGORITMO                
000C   0181           00118         CLRF TMR0               ;Zero o timer para contar o tempo que o sinal está em em nivel alto 
                      00119         
000D                  00120 CONTADOR
000D   1905           00121         BTFSC GPIO, GP2          ;gp2 foi para nivel baixo? Se sim continue contando até subir novamente
                             
000E   2???           00122         GOTO CONTADOR            ;continuar contando o tempo
000F   2???           00123         GOTO AGUARDA             ; Label para manter o tmr0 contando enquanto ficou embaixo até o proxim
                            o pulso
                      00124         
0010                  00125 AGUARDA                         
0010   1D05           00126         BTFSS GPIO, GP2          ;Testando a proxima subida do clock para ter o periodo da onda
0011   2???           00127         GOTO AGUARDA            
0012   0801           00128         MOVFW TMR0               ; Movendo o valor do tmr0 para o work 
0013   00A2           00129         MOVWF PERIODO            ; Movendo o periodo para uma variavel
0014   2???           00130         GOTO Hz5k               ; Indo verificar se é a frequencia de 5000 hertz
0015                  00131 Hz5k
                      00132         
0015   3057           00133         MOVLW .87               ; Movendo o INTERVALO inicial 180/2 pois o PRE SCALE É 1:2 conta 1 micro
                             a cada 2 micro, respeitando a margem de erro  da frequência de onda 5000 hertz para o work
0016   0222           00134         SUBWF PERIODO, W        ; Subtraindo e se O periodo pelo work, caso seja menor, o bit C estará e
                            m 0, indicando que a subtração resultou em um numero negativo
0017   1C03           00135         BTFSS STATUS, C         ; teste do bit C se for 1 pula a instrução abaixo , pois não é menor que
                             o intervalo inicial  
0018   2???           00136         GOTO Hz10k              ; Label para testar se é outra frequência
                      00137         
0019   306E           00138         MOVLW .110              ; Movendo o INTERVALO inicial 220/2, respeitando a margem de erro  da fr
                            equência de onda 5000 hertz para o work
001A   0222           00139         SUBWF PERIODO, W        ; Subtraindo e se O resultado for menor, o bit C estará em 0, indicando 
                            que a subtração resultou em um numero positivo ou igual a 220/2
001B   1803           00140         BTFSC STATUS, C         ; teste do bit C se for 0, pula a instrução abaixo 
001C   2???           00141         GOTO Hz10k              ; Label para testar se é outra frequência
001D   2???           00142         GOTO LED0               ; Label para acender o led correspondente
MPASM 5.77                         TRAB3.ASM   11-17-2021  11:41:33         PAGE  4


LOC  OBJECT CODE     LINE SOURCE TEXT
  VALUE

                      00143         
001E                  00144 Hz10k
001E   302A           00145         MOVLW .42               ; Movendo o INTERVALO inicial 90/2, respeitando a margem de erro  da fre
                            quência de onda 10000 hertz para o work
001F   0222           00146         SUBWF PERIODO, W        ; Subtraindo e se O periodo pelo work, caso seja menor, o bit C estará e
                            m 0, indicando que a subtração resultou em um numero negativo
0020   1C03           00147         BTFSS STATUS, C         ; teste do bit C se for 1 pula a instrução abaixo , pois não é menor que
                             o intervalo inicial 
0021   2???           00148         GOTO Hz20k              ; Label para testar se é outra frequência
                      00149         
0022   3037           00150         MOVLW .55               ; Movendo o INTERVALO inicial 110/2, respeitando a margem de erro  da fr
                            equência de onda 10000 hertz para o work
0023   0222           00151         SUBWF PERIODO, W        ; Subtraindo e se O resultado for menor, o bit C estará em 0, indicando 
                            que a subtração resultou em um numero positivo ou igual a 220/2
0024   1803           00152         BTFSC STATUS, C         ; teste do bit C se for 0, pula a instrução abaixo  
0025   2???           00153         GOTO Hz20k              ; Label para testar se é outra frequência
0026   2???           00154         GOTO LED1               ; Label para acender o led correspondente
                      00155         
0027                  00156 Hz20k
0027   3012           00157         MOVLW .18               ; Movendo o INTERVALO inicial 45/2, respeitando a margem de erro  da fre
                            quência de onda 20000 hertz para o work
0028   0222           00158         SUBWF PERIODO, W        ; Subtraindo e se O periodo pelo work, caso seja menor, o bit C estará e
                            m 0, indicando que a subtração resultou em um numero negativo
0029   1C03           00159         BTFSS STATUS, C         ; teste do bit C se for 1 pula a instrução abaixo , pois não é menor que
                             o intervalo inicial
002A   2???           00160         GOTO Hz30k              ; Label para testar se é outra frequência
                      00161         
002B   301B           00162         MOVLW .27               ; Movendo o INTERVALO inicial 55/2, respeitando a margem de erro  da fre
                            quência de onda 20000 hertz para o work
002C   0222           00163         SUBWF PERIODO, W        ; Subtraindo e se O resultado for menor, o bit C estará em 0, indicando 
                            que a subtração resultou em um numero positivo ou igual a 220/2
002D   1803           00164         BTFSC STATUS, C         ; teste do bit C se for 0, pula a instrução abaixo 
002E   2???           00165         GOTO Hz30k              ; Label para testar se é outra frequência
002F   2???           00166         GOTO LED4               ; Label para acender o led correspondente
0030                  00167 Hz30k
0030   300E           00168         MOVLW .14               ; Movendo o INTERVALO inicial 33/2, respeitando a margem de erro  da fre
                            quência de onda 30000 hertz para o work
0031   0222           00169         SUBWF PERIODO, W        ; Subtraindo e se O periodo pelo work, caso seja menor, o bit C estará e
                            m 0, indicando que a subtração resultou em um numero negativo
0032   1C03           00170         BTFSS STATUS, C         ; teste do bit C se for 1 pula a instrução abaixo , pois não é menor que
                             o intervalo inicial 
0033   2???           00171         GOTO Hz10k              ; Label para testar se é outra frequência
                      00172         
0034   3012           00173         MOVLW .18               ; Movendo o INTERVALO inicial 36/2, respeitando a margem de erro  da fre
                            quência de onda 30000 hertz para o work
0035   0222           00174         SUBWF PERIODO, W        ; Subtraindo e se O resultado for menor, o bit C estará em 0, indicando 
                            que a subtração resultou em um numero positivo ou igual a 220/2
0036   1803           00175         BTFSC STATUS, C         ; teste do bit C se for 0, pula a instrução abaixo 
0037   2???           00176         GOTO ERRO               ; Label para testar se é outra frequência
0038   2???           00177         GOTO LED5               ; Label para acender o led  correspondente
                      00178 
0039                  00179 LED0 
0039   1405           00180         BSF GPIO, GP0           ; Atribuindo nivel lógico 1 para o gp0 para indicar o acendimento do led
MPASM 5.77                         TRAB3.ASM   11-17-2021  11:41:33         PAGE  5


LOC  OBJECT CODE     LINE SOURCE TEXT
  VALUE

                             da frequência 5k
003A   2???           00181         GOTO MAIN
                      00182         
003B                  00183 LED1
003B   1485           00184         BSF GPIO, GP1           ; Atribuindo nivel lógico 1 para o gp1 para indicar o acendimento do led
                             da frequência 10k
003C   2???           00185         GOTO MAIN
003D                  00186 LED4
003D   1605           00187         BSF GPIO, GP4           ; Atribuindo nivel lógico 1 para o acendimento do led da frequência 20k
003E   2???           00188         GOTO MAIN
003F                  00189 LED5
003F   1685           00190         BSF GPIO, GP5           ; Atribuindo nivel lógico 1 para o acendimento do led da frequência 30k
0040   2???           00191         GOTO MAIN
0041                  00192 ERRO
0041   2???           00193         GOTO FIM
                      00194         ;CORPO DA ROTINA
                      00195 
0042   0008           00196         RETURN
                      00197 
                      00198 ;* * * * * * * * * * * * * * * * * * * * * * * * * * * * * * * * * *
                      00199 ;*                     INICIO DO PROGRAMA                          *
                      00200 ;* * * * * * * * * * * * * * * * * * * * * * * * * * * * * * * * * *
                      00201         
0043                  00202 INICIO
0043   1683           00203         BANK1                           ;ALTERA PARA O BANCO 1
0044   3024           00204         MOVLW   B'00100100' ;CONFIGURA TODAS AS PORTAS DO GPIO (PINOS)
Message[302]: Register in operand not in bank 0.  Ensure that bank bits are correct.
0045   0085           00205         MOVWF   TRISIO          ;COMO SAÍDAS
Message[302]: Register in operand not in bank 0.  Ensure that bank bits are correct.
0046   019F           00206         CLRF    ANSEL           ;DEFINE PORTAS COMO Digital I/O
0047   3000           00207         MOVLW   B'00000000'
Message[302]: Register in operand not in bank 0.  Ensure that bank bits are correct.
0048   0081           00208         MOVWF   OPTION_REG      ;DEFINE OPÇÕES DE OPERAÇÃO
0049   3084           00209         MOVLW   B'10000100'
004A   008B           00210         MOVWF   INTCON          ;DEFINE OPÇÕES DE INTERRUPÇÕES
004B   1283           00211         BANK0                           ;RETORNA PARA O BANCO
004C   3007           00212         MOVLW   B'00000111'
004D   0099           00213         MOVWF   CMCON           ;DEFINE O MODO DE OPERAÇÃO DO COMPARADOR ANALÓGICO
                      00214 
                      00215 ;* * * * * * * * * * * * * * * * * * * * * * * * * * * * * * * * * *
                      00216 ;*                     INICIALIZAÇÃO DAS VARIÁVEIS                 *
                      00217 ;* * * * * * * * * * * * * * * * * * * * * * * * * * * * * * * * * *
004E   1405           00218         BSF GPIO, GP0
004F   110B           00219         BCF INTCON, GP2
                      00220 ;* * * * * * * * * * * * * * * * * * * * * * * * * * * * * * * * * *
                      00221 ;*                     ROTINA PRINCIPAL                            *
                      00222 ;* * * * * * * * * * * * * * * * * * * * * * * * * * * * * * * * * *
0050                  00223 MAIN
                      00224 
0050   1905           00225         BTFSC GPIO, GP2          ;Verificando se GP2 está em nivel lógico baixo
0051   2???           00226         CALL ALGORITMO
0052   2???           00227         GOTO MAIN
0053                  00228 ZERA
MPASM 5.77                         TRAB3.ASM   11-17-2021  11:41:33         PAGE  6


LOC  OBJECT CODE     LINE SOURCE TEXT
  VALUE

                      00229 
0053   2???           00230         GOTO CONTADOR
                      00231 
                      00232 
                      00233 
                      00234 
0054                  00235 FIM
                      00236         
                      00237 
                      00238 ;* * * * * * * * * * * * * * * * * * * * * * * * * * * * * * * * * *
                      00239 ;*                       FIM DO PROGRAMA                           *
                      00240 ;* * * * * * * * * * * * * * * * * * * * * * * * * * * * * * * * * *
                      00241 
3FA4                  00242         END
MPASM 5.77                         TRAB3.ASM   11-17-2021  11:41:33         PAGE  7


SYMBOL TABLE
  LABEL                             VALUE 

ADCON0                            0000001F
ADCS0                             00000004
ADCS1                             00000005
ADCS2                             00000006
ADFM                              00000007
ADIE                              00000006
ADIF                              00000006
ADON                              00000000
ADRESH                            0000001E
ADRESL                            0000009E
AGUARDA                           00000010
ALGORITMO                         0000000C
ANS0                              00000000
ANS1                              00000001
ANS2                              00000002
ANS3                              00000003
ANSEL                             0000009F
BANK0                             BCF STATUS,RP0
BANK1                             BSF STATUS,RP0
C                                 00000000
CAL0                              00000002
CAL1                              00000003
CAL2                              00000004
CAL3                              00000005
CAL4                              00000006
CAL5                              00000007
CHS0                              00000002
CHS1                              00000003
CINV                              00000004
CIS                               00000003
CM0                               00000000
CM1                               00000001
CM2                               00000002
CMCON                             00000019
CMIE                              00000003
CMIF                              00000003
CONTADOR                          0000000D
COUT                              00000006
DC                                00000001
EEADR                             0000009B
EECON1                            0000009C
EECON2                            0000009D
EEDAT                             0000009A
EEDATA                            0000009A
EEIE                              00000007
EEIF                              00000007
ERRO                              00000041
F                                 00000001
FIM                               00000054
FSR                               00000004
GIE                               00000007
GO                                00000001
GO_DONE                           00000001
MPASM 5.77                         TRAB3.ASM   11-17-2021  11:41:33         PAGE  8


SYMBOL TABLE
  LABEL                             VALUE 

GO_NOT_DONE                       00000001
GP0                               00000000
GP1                               00000001
GP2                               00000002
GP3                               00000003
GP4                               00000004
GP5                               00000005
GPIE                              00000003
GPIF                              00000000
GPIO                              00000005
GPIO0                             00000000
GPIO1                             00000001
GPIO2                             00000002
GPIO3                             00000003
GPIO4                             00000004
GPIO5                             00000005
Hz10k                             0000001E
Hz20k                             00000027
Hz30k                             00000030
Hz5k                              00000015
INDF                              00000000
INICIO                            00000043
INTCON                            0000000B
INTE                              00000004
INTEDG                            00000006
INTF                              00000001
IOC                               00000096
IOC0                              00000000
IOC1                              00000001
IOC2                              00000002
IOC3                              00000003
IOC4                              00000004
IOC5                              00000005
IOCB                              00000096
IOCB0                             00000000
IOCB1                             00000001
IOCB2                             00000002
IOCB3                             00000003
IOCB4                             00000004
IOCB5                             00000005
IRP                               00000007
LED0                              00000039
LED1                              0000003B
LED4                              0000003D
LED5                              0000003F
MAIN                              00000050
NOT_BOD                           00000000
NOT_BOR                           00000000
NOT_DONE                          00000001
NOT_GPPU                          00000007
NOT_PD                            00000003
NOT_POR                           00000001
NOT_T1SYNC                        00000002
MPASM 5.77                         TRAB3.ASM   11-17-2021  11:41:33         PAGE  9


SYMBOL TABLE
  LABEL                             VALUE 

NOT_TO                            00000004
ONDA                              00000023
OPTION_REG                        00000081
OSCCAL                            00000090
PCL                               00000002
PCLATH                            0000000A
PCON                              0000008E
PEIE                              00000006
PERIODO                           00000022
PIE1                              0000008C
PIR1                              0000000C
PS0                               00000000
PS1                               00000001
PS2                               00000002
PSA                               00000003
RD                                00000000
RP0                               00000005
RP1                               00000006
SAI_INT                           00000007
STATUS                            00000003
STATUS_TEMP                       00000021
T0CS                              00000005
T0IE                              00000005
T0IF                              00000002
T0SE                              00000004
T1CKPS0                           00000004
T1CKPS1                           00000005
T1CON                             00000010
T1IE                              00000000
T1IF                              00000000
T1OSCEN                           00000003
TMR0                              00000001
TMR0IE                            00000005
TMR0IF                            00000002
TMR1                              0000000E
TMR1CS                            00000001
TMR1GE                            00000006
TMR1H                             0000000F
TMR1IE                            00000000
TMR1IF                            00000000
TMR1L                             0000000E
TMR1ON                            00000000
TRISIO                            00000085
TRISIO0                           00000000
TRISIO1                           00000001
TRISIO2                           00000002
TRISIO3                           00000003
TRISIO4                           00000004
TRISIO5                           00000005
VCFG                              00000006
VR0                               00000000
VR1                               00000001
VR2                               00000002
MPASM 5.77                         TRAB3.ASM   11-17-2021  11:41:33         PAGE 10


SYMBOL TABLE
  LABEL                             VALUE 

VR3                               00000003
VRCON                             00000099
VREN                              00000007
VRR                               00000005
W                                 00000000
WPU                               00000095
WPU0                              00000000
WPU1                              00000001
WPU2                              00000002
WPU4                              00000004
WPU5                              00000005
WR                                00000001
WREN                              00000002
WRERR                             00000003
W_TEMP                            00000020
Z                                 00000002
ZERA                              00000053
_BODEN_OFF                        00003FBF
_BODEN_ON                         00003FFF
_BOREN_OFF                        00003FBF
_BOREN_ON                         00003FFF
_CONFIG                           00002007
_CPD_OFF                          00003FFF
_CPD_ON                           00003EFF
_CP_OFF                           00003FFF
_CP_ON                            00003F7F
_DEVID1                           00002006
_EC_OSC                           00003FFB
_EXTRC_OSC_CLKOUT                 00003FFF
_EXTRC_OSC_NOCLKOUT               00003FFE
_FOSC_EC                          00003FFB
_FOSC_EXTRCCLK                    00003FFF
_FOSC_EXTRCIO                     00003FFE
_FOSC_HS                          00003FFA
_FOSC_INTRCCLK                    00003FFD
_FOSC_INTRCIO                     00003FFC
_FOSC_LP                          00003FF8
_FOSC_XT                          00003FF9
_HS_OSC                           00003FFA
_IDLOC0                           00002000
_IDLOC1                           00002001
_IDLOC2                           00002002
_IDLOC3                           00002003
_INTRC_OSC_CLKOUT                 00003FFD
_INTRC_OSC_NOCLKOUT               00003FFC
_LP_OSC                           00003FF8
_MCLRE_OFF                        00003FDF
_MCLRE_ON                         00003FFF
_PWRTE_OFF                        00003FFF
_PWRTE_ON                         00003FEF
_WDTE_OFF                         00003FF7
_WDTE_ON                          00003FFF
_WDT_OFF                          00003FF7
MPASM 5.77                         TRAB3.ASM   11-17-2021  11:41:33         PAGE 11


SYMBOL TABLE
  LABEL                             VALUE 

_WDT_ON                           00003FFF
_XT_OSC                           00003FF9
__12F675                          00000001
__DEBUG                           
__MPLAB_DEBUGGER_SIMULATOR        1
int10kFinal                       00000027
int10kInicial                     00000026
int20kFinal                       00000029
int20kInicial                     00000028
int30kFinal                       0000002B
int30kInicial                     0000002A
int5kFinal                        00000025
int5kInicial                      00000024

Errors   :     0
Warnings :     0 reported,     0 suppressed
Messages :     3 reported,     0 suppressed

